; Function Attrs: mustprogress nounwind uwtable
define hidden void @_ZN10XMetronome4stopEv(ptr noundef nonnull align 8 dereferenceable(129) %0) local_unnamed_addr #0 align 2 {
_ZN13MonitorLockerD2Ev.exit:
  tail call void @_ZN5Mutex28lock_without_safepoint_checkEv(ptr noundef nonnull align 8 dereferenceable(104) %0) #3
  %1 = getelementptr inbounds i8, ptr %0, i64 128
  store i8 1, ptr %1, align 8
  tail call void @_ZN7Monitor6notifyEv(ptr noundef nonnull align 8 dereferenceable(104) %0) #3
  tail call void @_ZN5Mutex6unlockEv(ptr noundef nonnull align 8 dereferenceable(104) %0) #3
  ret void
}